target datalayout = "e-m:e-p270:32:32-p271:32:32-p272:64:64-i64:64-i128:128-f80:128-n8:16:32:64-S128"
target triple = "x86_64-pc-linux-gnu"

%struct.imap_server_conf = type { ptr, ptr, i32, ptr, ptr, ptr, i32, i32, i32, ptr }
%struct.imap_store = type { ptr, ptr, i32, ptr, ptr }
%struct.imap = type { i32, i32, i32, i32, i32, i32, ptr, ptr, %struct.imap_buffer }
%struct.imap_buffer = type { %struct.imap_socket, i32, i32, [1024 x i8] }
%struct.imap_socket = type { [2 x i32], ptr }

@.str.121 = private unnamed_addr constant [36 x i8] c"IMAP error: sending response failed\00", align 1
@.str.122 = private unnamed_addr constant [21 x i8] c"invalid challenge %s\00", align 1
@.str.123 = private unnamed_addr constant [11 x i8] c"HMAC error\00", align 1
@.str.124 = private unnamed_addr constant [6 x i8] c"%s %s\00", align 1
@.str.125 = private unnamed_addr constant [22 x i8] c"EVP_EncodeBlock error\00", align 1

; Function Attrs: nounwind uwtable
define internal signext i8 @hexchar(i32 noundef %0) #0 {
  %2 = alloca i32, align 4
  store i32 %0, ptr %2, align 4, !tbaa !4
  %3 = load i32, ptr %2, align 4, !tbaa !4
  %4 = icmp ult i32 %3, 10
  br i1 %4, label %5, label %8

5:                                                ; preds = %1
  %6 = load i32, ptr %2, align 4, !tbaa !4
  %7 = add i32 48, %6
  br label %12

8:                                                ; preds = %1
  %9 = load i32, ptr %2, align 4, !tbaa !4
  %10 = sub i32 %9, 10
  %11 = add i32 97, %10
  br label %12

12:                                               ; preds = %8, %5
  %13 = phi i32 [ %7, %5 ], [ %11, %8 ]
  %14 = trunc i32 %13 to i8
  ret i8 %14
}

; Function Attrs: inlinehint nounwind uwtable
define internal i32 @const_error() #5 {
  ret i32 -1
}

; Function Attrs: nounwind uwtable
define internal ptr @cram(ptr noundef %0, ptr noundef %1, ptr noundef %2) #0 {
  %4 = alloca ptr, align 8
  %5 = alloca ptr, align 8
  %6 = alloca ptr, align 8
  %7 = alloca i32, align 4
  %8 = alloca i32, align 4
  %9 = alloca i32, align 4
  %10 = alloca i32, align 4
  %11 = alloca [16 x i8], align 16
  %12 = alloca [33 x i8], align 16
  %13 = alloca ptr, align 8
  %14 = alloca ptr, align 8
  %15 = alloca ptr, align 8
  store ptr %0, ptr %4, align 8, !tbaa !29
  store ptr %1, ptr %5, align 8, !tbaa !29
  store ptr %2, ptr %6, align 8, !tbaa !29
  call void @llvm.lifetime.start.p0(i64 4, ptr %7) #11
  call void @llvm.lifetime.start.p0(i64 4, ptr %8) #11
  call void @llvm.lifetime.start.p0(i64 4, ptr %9) #11
  call void @llvm.lifetime.start.p0(i64 4, ptr %10) #11
  call void @llvm.lifetime.start.p0(i64 16, ptr %11) #11
  call void @llvm.lifetime.start.p0(i64 33, ptr %12) #11
  call void @llvm.lifetime.start.p0(i64 8, ptr %13) #11
  call void @llvm.lifetime.start.p0(i64 8, ptr %14) #11
  call void @llvm.lifetime.start.p0(i64 8, ptr %15) #11
  %16 = load ptr, ptr %4, align 8, !tbaa !29
  %17 = call i64 @strlen(ptr noundef %16) #13
  %18 = trunc i64 %17 to i32
  store i32 %18, ptr %9, align 4, !tbaa !4
  %19 = load i32, ptr %9, align 4, !tbaa !4
  %20 = sext i32 %19 to i64
  %21 = call ptr @xmalloc(i64 noundef %20)
  store ptr %21, ptr %15, align 8, !tbaa !29
  %22 = load ptr, ptr %15, align 8, !tbaa !29
  %23 = load ptr, ptr %4, align 8, !tbaa !29
  %24 = load i32, ptr %9, align 4, !tbaa !4
  %25 = call i32 @EVP_DecodeBlock(ptr noundef %22, ptr noundef %23, i32 noundef %24)
  store i32 %25, ptr %10, align 4, !tbaa !4
  %26 = load i32, ptr %10, align 4, !tbaa !4
  %27 = icmp slt i32 %26, 0
  br i1 %27, label %28, label %30

28:                                               ; preds = %3
  %29 = load ptr, ptr %4, align 8, !tbaa !29
  call void (ptr, ...) @die(ptr noundef @.str.122, ptr noundef %29) #12
  unreachable

30:                                               ; preds = %3
  %31 = call ptr @EVP_md5()
  %32 = load ptr, ptr %6, align 8, !tbaa !29
  %33 = load ptr, ptr %6, align 8, !tbaa !29
  %34 = call i64 @strlen(ptr noundef %33) #13
  %35 = trunc i64 %34 to i32
  %36 = load ptr, ptr %15, align 8, !tbaa !29
  %37 = load i32, ptr %10, align 4, !tbaa !4
  %38 = sext i32 %37 to i64
  %39 = getelementptr inbounds [16 x i8], ptr %11, i64 0, i64 0
  %40 = call ptr @HMAC(ptr noundef %31, ptr noundef %32, i32 noundef %35, ptr noundef %36, i64 noundef %38, ptr noundef %39, ptr noundef null)
  %41 = icmp ne ptr %40, null
  br i1 %41, label %43, label %42

42:                                               ; preds = %30
  call void (ptr, ...) @die(ptr noundef @.str.123) #12
  unreachable

43:                                               ; preds = %30
  %44 = getelementptr inbounds [33 x i8], ptr %12, i64 0, i64 32
  store i8 0, ptr %44, align 16, !tbaa !39
  store i32 0, ptr %7, align 4, !tbaa !4
  br label %45

45:                                               ; preds = %73, %43
  %46 = load i32, ptr %7, align 4, !tbaa !4
  %47 = icmp slt i32 %46, 16
  br i1 %47, label %48, label %76

48:                                               ; preds = %45
  %49 = load i32, ptr %7, align 4, !tbaa !4
  %50 = sext i32 %49 to i64
  %51 = getelementptr inbounds [16 x i8], ptr %11, i64 0, i64 %50
  %52 = load i8, ptr %51, align 1, !tbaa !39
  %53 = zext i8 %52 to i32
  %54 = ashr i32 %53, 4
  %55 = and i32 %54, 15
  %56 = call signext i8 @hexchar(i32 noundef %55)
  %57 = load i32, ptr %7, align 4, !tbaa !4
  %58 = mul nsw i32 2, %57
  %59 = sext i32 %58 to i64
  %60 = getelementptr inbounds [33 x i8], ptr %12, i64 0, i64 %59
  store i8 %56, ptr %60, align 1, !tbaa !39
  %61 = load i32, ptr %7, align 4, !tbaa !4
  %62 = sext i32 %61 to i64
  %63 = getelementptr inbounds [16 x i8], ptr %11, i64 0, i64 %62
  %64 = load i8, ptr %63, align 1, !tbaa !39
  %65 = zext i8 %64 to i32
  %66 = and i32 %65, 15
  %67 = call signext i8 @hexchar(i32 noundef %66)
  %68 = load i32, ptr %7, align 4, !tbaa !4
  %69 = mul nsw i32 2, %68
  %70 = add nsw i32 %69, 1
  %71 = sext i32 %70 to i64
  %72 = getelementptr inbounds [33 x i8], ptr %12, i64 0, i64 %71
  store i8 %67, ptr %72, align 1, !tbaa !39
  br label %73

73:                                               ; preds = %48
  %74 = load i32, ptr %7, align 4, !tbaa !4
  %75 = add nsw i32 %74, 1
  store i32 %75, ptr %7, align 4, !tbaa !4
  br label %45, !llvm.loop !154

76:                                               ; preds = %45
  %77 = load ptr, ptr %5, align 8, !tbaa !29
  %78 = getelementptr inbounds [33 x i8], ptr %12, i64 0, i64 0
  %79 = call ptr (ptr, ...) @xstrfmt(ptr noundef @.str.124, ptr noundef %77, ptr noundef %78)
  store ptr %79, ptr %13, align 8, !tbaa !29
  %80 = load ptr, ptr %13, align 8, !tbaa !29
  %81 = call i64 @strlen(ptr noundef %80) #13
  %82 = trunc i64 %81 to i32
  store i32 %82, ptr %8, align 4, !tbaa !4
  %83 = load i32, ptr %8, align 4, !tbaa !4
  %84 = add nsw i32 %83, 3
  %85 = sub nsw i32 %84, 1
  %86 = sdiv i32 %85, 3
  %87 = mul nsw i32 4, %86
  %88 = sext i32 %87 to i64
  %89 = call ptr @xmallocz(i64 noundef %88)
  store ptr %89, ptr %14, align 8, !tbaa !29
  %90 = load ptr, ptr %14, align 8, !tbaa !29
  %91 = load ptr, ptr %13, align 8, !tbaa !29
  %92 = load i32, ptr %8, align 4, !tbaa !4
  %93 = call i32 @EVP_EncodeBlock(ptr noundef %90, ptr noundef %91, i32 noundef %92)
  store i32 %93, ptr %9, align 4, !tbaa !4
  %94 = load i32, ptr %9, align 4, !tbaa !4
  %95 = icmp slt i32 %94, 0
  br i1 %95, label %96, label %97

96:                                               ; preds = %76
  call void (ptr, ...) @die(ptr noundef @.str.125) #12
  unreachable

97:                                               ; preds = %76
  %98 = load ptr, ptr %14, align 8, !tbaa !29
  call void @llvm.lifetime.end.p0(i64 8, ptr %15) #11
  call void @llvm.lifetime.end.p0(i64 8, ptr %14) #11
  call void @llvm.lifetime.end.p0(i64 8, ptr %13) #11
  call void @llvm.lifetime.end.p0(i64 33, ptr %12) #11
  call void @llvm.lifetime.end.p0(i64 16, ptr %11) #11
  call void @llvm.lifetime.end.p0(i64 4, ptr %10) #11
  call void @llvm.lifetime.end.p0(i64 4, ptr %9) #11
  call void @llvm.lifetime.end.p0(i64 4, ptr %8) #11
  call void @llvm.lifetime.end.p0(i64 4, ptr %7) #11
  ret ptr %98
}

; Function Attrs: nounwind uwtable
define internal i32 @auth_cram_md5(ptr noundef %0, ptr noundef %1) #0 {
  %3 = alloca i32, align 4
  %4 = alloca ptr, align 8
  %5 = alloca ptr, align 8
  %6 = alloca i32, align 4
  %7 = alloca ptr, align 8
  %8 = alloca i32, align 4
  store ptr %0, ptr %4, align 8, !tbaa !43
  store ptr %1, ptr %5, align 8, !tbaa !29
  call void @llvm.lifetime.start.p0(i64 4, ptr %6) #11
  call void @llvm.lifetime.start.p0(i64 8, ptr %7) #11
  %9 = load ptr, ptr %5, align 8, !tbaa !29
  %10 = load ptr, ptr %4, align 8, !tbaa !43
  %11 = getelementptr inbounds nuw %struct.imap_store, ptr %10, i32 0, i32 0
  %12 = load ptr, ptr %11, align 8, !tbaa !56
  %13 = getelementptr inbounds nuw %struct.imap_server_conf, ptr %12, i32 0, i32 4
  %14 = load ptr, ptr %13, align 8, !tbaa !23
  %15 = load ptr, ptr %4, align 8, !tbaa !43
  %16 = getelementptr inbounds nuw %struct.imap_store, ptr %15, i32 0, i32 0
  %17 = load ptr, ptr %16, align 8, !tbaa !56
  %18 = getelementptr inbounds nuw %struct.imap_server_conf, ptr %17, i32 0, i32 5
  %19 = load ptr, ptr %18, align 8, !tbaa !24
  %20 = call ptr @cram(ptr noundef %9, ptr noundef %14, ptr noundef %19)
  store ptr %20, ptr %7, align 8, !tbaa !29
  %21 = load ptr, ptr %4, align 8, !tbaa !43
  %22 = getelementptr inbounds nuw %struct.imap_store, ptr %21, i32 0, i32 3
  %23 = load ptr, ptr %22, align 8, !tbaa !58
  %24 = getelementptr inbounds nuw %struct.imap, ptr %23, i32 0, i32 8
  %25 = getelementptr inbounds nuw %struct.imap_buffer, ptr %24, i32 0, i32 0
  %26 = load ptr, ptr %7, align 8, !tbaa !29
  %27 = load ptr, ptr %7, align 8, !tbaa !29
  %28 = call i64 @strlen(ptr noundef %27) #13
  %29 = trunc i64 %28 to i32
  %30 = call i32 @socket_write(ptr noundef %25, ptr noundef %26, i32 noundef %29)
  store i32 %30, ptr %6, align 4, !tbaa !4
  %31 = load i32, ptr %6, align 4, !tbaa !4
  %32 = sext i32 %31 to i64
  %33 = load ptr, ptr %7, align 8, !tbaa !29
  %34 = call i64 @strlen(ptr noundef %33) #13
  %35 = icmp ne i64 %32, %34
  br i1 %35, label %36, label %39

36:                                               ; preds = %2
  %37 = call i32 (ptr, ...) @error(ptr noundef @.str.121)
  %38 = call i32 @const_error()
  store i32 %38, ptr %3, align 4
  store i32 1, ptr %8, align 4
  br label %41

39:                                               ; preds = %2
  %40 = load ptr, ptr %7, align 8, !tbaa !29
  call void @free(ptr noundef %40) #11
  store i32 0, ptr %3, align 4
  store i32 1, ptr %8, align 4
  br label %41

41:                                               ; preds = %39, %36
  call void @llvm.lifetime.end.p0(i64 8, ptr %7) #11
  call void @llvm.lifetime.end.p0(i64 4, ptr %6) #11
  %42 = load i32, ptr %3, align 4
  ret i32 %42
}