; Function Attrs: nounwind uwtable
define internal range(i32 -1, 1) i32 @auth_cram_md5(ptr noundef readonly captures(none) %0, ptr noundef %1) #0 {
  %3 = alloca [16 x i8], align 16
  %4 = alloca [33 x i8], align 16
  %5 = load ptr, ptr %0, align 8, !tbaa !46
  %6 = getelementptr inbounds nuw i8, ptr %5, i64 32
  %7 = load ptr, ptr %6, align 8, !tbaa !24
  %8 = getelementptr inbounds nuw i8, ptr %5, i64 40
  %9 = load ptr, ptr %8, align 8, !tbaa !25
  call void @llvm.lifetime.start.p0(i64 16, ptr nonnull %3) #22
  call void @llvm.lifetime.start.p0(i64 33, ptr nonnull %4) #22
  %10 = tail call i64 @strlen(ptr noundef nonnull dereferenceable(1) %1) #25
  %11 = trunc i64 %10 to i32
  %sext.i = shl i64 %10, 32
  %12 = ashr exact i64 %sext.i, 32
  %13 = tail call ptr @xmalloc(i64 noundef %12) #22
  %14 = tail call i32 @EVP_DecodeBlock(ptr noundef %13, ptr noundef nonnull %1, i32 noundef %11) #22
  %15 = icmp slt i32 %14, 0
  br i1 %15, label %16, label %17

16:                                               ; preds = %2
  tail call void (ptr, ...) @die(ptr noundef nonnull @.str.122, ptr noundef nonnull %1) #23
  unreachable

17:                                               ; preds = %2
  %18 = tail call ptr @EVP_md5() #22
  %19 = tail call i64 @strlen(ptr noundef nonnull dereferenceable(1) %9) #25
  %20 = trunc i64 %19 to i32
  %21 = zext nneg i32 %14 to i64
  %22 = call ptr @HMAC(ptr noundef %18, ptr noundef nonnull %9, i32 noundef %20, ptr noundef %13, i64 noundef %21, ptr noundef nonnull %3, ptr noundef null) #22
  %.not.i = icmp eq ptr %22, null
  br i1 %.not.i, label %23, label %24

23:                                               ; preds = %17
  call void (ptr, ...) @die(ptr noundef nonnull @.str.123) #23
  unreachable

24:                                               ; preds = %17
  %25 = getelementptr inbounds nuw i8, ptr %4, i64 32
  store i8 0, ptr %25, align 16, !tbaa !26
  br label %26

26:                                               ; preds = %26, %24
  %indvars.iv.i = phi i64 [ 0, %24 ], [ %indvars.iv.next.i, %26 ]
  %27 = getelementptr inbounds nuw [16 x i8], ptr %3, i64 0, i64 %indvars.iv.i
  %28 = load i8, ptr %27, align 1, !tbaa !26
  %29 = lshr i8 %28, 4
  %30 = icmp ult i8 %28, -96
  %31 = or disjoint i8 %29, 48
  %32 = add nuw nsw i8 %29, 87
  %33 = select i1 %30, i8 %31, i8 %32
  %34 = shl nuw nsw i64 %indvars.iv.i, 1
  %35 = getelementptr inbounds nuw [33 x i8], ptr %4, i64 0, i64 %34
  store i8 %33, ptr %35, align 2, !tbaa !26
  %36 = and i8 %28, 15
  %37 = icmp samesign ult i8 %36, 10
  %38 = or disjoint i8 %36, 48
  %39 = add nuw nsw i8 %36, 87
  %40 = select i1 %37, i8 %38, i8 %39
  %41 = or disjoint i64 %34, 1
  %42 = getelementptr inbounds nuw [33 x i8], ptr %4, i64 0, i64 %41
  store i8 %40, ptr %42, align 1, !tbaa !26
  %indvars.iv.next.i = add nuw nsw i64 %indvars.iv.i, 1
  %exitcond.not.i = icmp eq i64 %indvars.iv.next.i, 16
  br i1 %exitcond.not.i, label %43, label %26, !llvm.loop !104

43:                                               ; preds = %26
  %44 = call ptr (ptr, ...) @xstrfmt(ptr noundef nonnull @.str.124, ptr noundef %7, ptr noundef nonnull %4) #22
  %45 = call i64 @strlen(ptr noundef nonnull dereferenceable(1) %44) #25
  %46 = trunc i64 %45 to i32
  %47 = add nsw i32 %46, 2
  %48 = sdiv i32 %47, 3
  %49 = shl nsw i32 %48, 2
  %50 = sext i32 %49 to i64
  %51 = call ptr @xmallocz(i64 noundef %50) #22
  %52 = call i32 @EVP_EncodeBlock(ptr noundef %51, ptr noundef nonnull %44, i32 noundef %46) #22
  %53 = icmp slt i32 %52, 0
  br i1 %53, label %54, label %cram.exit

54:                                               ; preds = %43
  call void (ptr, ...) @die(ptr noundef nonnull @.str.125) #23
  unreachable

cram.exit:                                        ; preds = %43
  call void @llvm.lifetime.end.p0(i64 33, ptr nonnull %4) #22
  call void @llvm.lifetime.end.p0(i64 16, ptr nonnull %3) #22
  %55 = getelementptr inbounds nuw i8, ptr %0, i64 24
  %56 = load ptr, ptr %55, align 8, !tbaa !50
  %57 = getelementptr inbounds nuw i8, ptr %56, i64 40
  %58 = call i64 @strlen(ptr noundef nonnull dereferenceable(1) %51) #25
  %59 = trunc i64 %58 to i32
  %60 = call fastcc i32 @socket_write(ptr noundef nonnull %57, ptr noundef nonnull %51, i32 noundef %59)
  %61 = sext i32 %60 to i64
  %62 = call i64 @strlen(ptr noundef nonnull dereferenceable(1) %51) #25
  %.not = icmp eq i64 %62, %61
  br i1 %.not, label %65, label %63

63:                                               ; preds = %cram.exit
  %64 = call i32 (ptr, ...) @error(ptr noundef nonnull @.str.121) #22
  br label %66

65:                                               ; preds = %cram.exit
  call void @free(ptr noundef nonnull %51) #22
  br label %66

66:                                               ; preds = %65, %63
  %.0 = phi i32 [ -1, %63 ], [ 0, %65 ]
  ret i32 %.0
}